target datalayout = "e-m:e-p270:32:32-p271:32:32-p272:64:64-i64:64-i128:128-f80:128-n8:16:32:64-S128"
target triple = "x86_64-pc-linux-gnu"

%"struct.faiss::FlatCodesDistanceComputer" = type { %"struct.faiss::DistanceComputer", ptr, i64 }
%"struct.faiss::DistanceComputer" = type { ptr }
%"struct.faiss::(anonymous namespace)::FlatL2WithNormsDis" = type <{ %"struct.faiss::FlatCodesDistanceComputer", i64, i64, ptr, ptr, i64, ptr, float, [4 x i8] }>

; Function Attrs: inlinehint mustprogress nounwind uwtable
define linkonce_odr void @_Z11prefetch_L2PKv(ptr noundef %0) #0 comdat {
  %2 = alloca ptr, align 8
  store ptr %0, ptr %2, align 8, !tbaa !140
  %3 = load ptr, ptr %2, align 8, !tbaa !140
  call void @llvm.prefetch.p0(ptr %3, i32 0, i32 2, i32 1)
  ret void
}

; Function Attrs: mustprogress uwtable
define internal void @_ZN5faiss12_GLOBAL__N_118FlatL2WithNormsDis17distances_batch_4EllllRfS2_S2_S2_(ptr noundef nonnull align 8 dereferenceable(76) %0, i64 noundef %1, i64 noundef %2, i64 noundef %3, i64 noundef %4, ptr noundef nonnull align 4 dereferenceable(4) %5, ptr noundef nonnull align 4 dereferenceable(4) %6, ptr noundef nonnull align 4 dereferenceable(4) %7, ptr noundef nonnull align 4 dereferenceable(4) %8) unnamed_addr #2 align 2 {
  %10 = alloca ptr, align 8
  %11 = alloca i64, align 8
  %12 = alloca i64, align 8
  %13 = alloca i64, align 8
  %14 = alloca i64, align 8
  %15 = alloca ptr, align 8
  %16 = alloca ptr, align 8
  %17 = alloca ptr, align 8
  %18 = alloca ptr, align 8
  %19 = alloca ptr, align 8
  %20 = alloca ptr, align 8
  %21 = alloca ptr, align 8
  %22 = alloca ptr, align 8
  %23 = alloca float, align 4
  %24 = alloca float, align 4
  %25 = alloca float, align 4
  %26 = alloca float, align 4
  store ptr %0, ptr %10, align 8, !tbaa !152
  store i64 %1, ptr %11, align 8, !tbaa !13
  store i64 %2, ptr %12, align 8, !tbaa !13
  store i64 %3, ptr %13, align 8, !tbaa !13
  store i64 %4, ptr %14, align 8, !tbaa !13
  store ptr %5, ptr %15, align 8, !tbaa !15
  store ptr %6, ptr %16, align 8, !tbaa !15
  store ptr %7, ptr %17, align 8, !tbaa !15
  store ptr %8, ptr %18, align 8, !tbaa !15
  %27 = load ptr, ptr %10, align 8
  %28 = getelementptr inbounds nuw %"struct.faiss::(anonymous namespace)::FlatL2WithNormsDis", ptr %27, i32 0, i32 5
  %29 = load i64, ptr %28, align 8, !tbaa !159
  %30 = add i64 %29, 4
  store i64 %30, ptr %28, align 8, !tbaa !159
  call void @llvm.lifetime.start.p0(i64 8, ptr %19) #18
  %31 = getelementptr inbounds nuw %"struct.faiss::FlatCodesDistanceComputer", ptr %27, i32 0, i32 1
  %32 = load ptr, ptr %31, align 8, !tbaa !120
  %33 = load i64, ptr %11, align 8, !tbaa !13
  %34 = getelementptr inbounds nuw %"struct.faiss::FlatCodesDistanceComputer", ptr %27, i32 0, i32 2
  %35 = load i64, ptr %34, align 8, !tbaa !121
  %36 = mul i64 %33, %35
  %37 = getelementptr inbounds nuw i8, ptr %32, i64 %36
  store ptr %37, ptr %19, align 8, !tbaa !15
  call void @llvm.lifetime.start.p0(i64 8, ptr %20) #18
  %38 = getelementptr inbounds nuw %"struct.faiss::FlatCodesDistanceComputer", ptr %27, i32 0, i32 1
  %39 = load ptr, ptr %38, align 8, !tbaa !120
  %40 = load i64, ptr %12, align 8, !tbaa !13
  %41 = getelementptr inbounds nuw %"struct.faiss::FlatCodesDistanceComputer", ptr %27, i32 0, i32 2
  %42 = load i64, ptr %41, align 8, !tbaa !121
  %43 = mul i64 %40, %42
  %44 = getelementptr inbounds nuw i8, ptr %39, i64 %43
  store ptr %44, ptr %20, align 8, !tbaa !15
  call void @llvm.lifetime.start.p0(i64 8, ptr %21) #18
  %45 = getelementptr inbounds nuw %"struct.faiss::FlatCodesDistanceComputer", ptr %27, i32 0, i32 1
  %46 = load ptr, ptr %45, align 8, !tbaa !120
  %47 = load i64, ptr %13, align 8, !tbaa !13
  %48 = getelementptr inbounds nuw %"struct.faiss::FlatCodesDistanceComputer", ptr %27, i32 0, i32 2
  %49 = load i64, ptr %48, align 8, !tbaa !121
  %50 = mul i64 %47, %49
  %51 = getelementptr inbounds nuw i8, ptr %46, i64 %50
  store ptr %51, ptr %21, align 8, !tbaa !15
  call void @llvm.lifetime.start.p0(i64 8, ptr %22) #18
  %52 = getelementptr inbounds nuw %"struct.faiss::FlatCodesDistanceComputer", ptr %27, i32 0, i32 1
  %53 = load ptr, ptr %52, align 8, !tbaa !120
  %54 = load i64, ptr %14, align 8, !tbaa !13
  %55 = getelementptr inbounds nuw %"struct.faiss::FlatCodesDistanceComputer", ptr %27, i32 0, i32 2
  %56 = load i64, ptr %55, align 8, !tbaa !121
  %57 = mul i64 %54, %56
  %58 = getelementptr inbounds nuw i8, ptr %53, i64 %57
  store ptr %58, ptr %22, align 8, !tbaa !15
  %59 = getelementptr inbounds nuw %"struct.faiss::(anonymous namespace)::FlatL2WithNormsDis", ptr %27, i32 0, i32 6
  %60 = load ptr, ptr %59, align 8, !tbaa !160
  %61 = load i64, ptr %11, align 8, !tbaa !13
  %62 = getelementptr inbounds float, ptr %60, i64 %61
  call void @_Z11prefetch_L2PKv(ptr noundef %62)
  %63 = getelementptr inbounds nuw %"struct.faiss::(anonymous namespace)::FlatL2WithNormsDis", ptr %27, i32 0, i32 6
  %64 = load ptr, ptr %63, align 8, !tbaa !160
  %65 = load i64, ptr %12, align 8, !tbaa !13
  %66 = getelementptr inbounds float, ptr %64, i64 %65
  call void @_Z11prefetch_L2PKv(ptr noundef %66)
  %67 = getelementptr inbounds nuw %"struct.faiss::(anonymous namespace)::FlatL2WithNormsDis", ptr %27, i32 0, i32 6
  %68 = load ptr, ptr %67, align 8, !tbaa !160
  %69 = load i64, ptr %13, align 8, !tbaa !13
  %70 = getelementptr inbounds float, ptr %68, i64 %69
  call void @_Z11prefetch_L2PKv(ptr noundef %70)
  %71 = getelementptr inbounds nuw %"struct.faiss::(anonymous namespace)::FlatL2WithNormsDis", ptr %27, i32 0, i32 6
  %72 = load ptr, ptr %71, align 8, !tbaa !160
  %73 = load i64, ptr %14, align 8, !tbaa !13
  %74 = getelementptr inbounds float, ptr %72, i64 %73
  call void @_Z11prefetch_L2PKv(ptr noundef %74)
  call void @llvm.lifetime.start.p0(i64 4, ptr %23) #18
  store float 0.000000e+00, ptr %23, align 4, !tbaa !45
  call void @llvm.lifetime.start.p0(i64 4, ptr %24) #18
  store float 0.000000e+00, ptr %24, align 4, !tbaa !45
  call void @llvm.lifetime.start.p0(i64 4, ptr %25) #18
  store float 0.000000e+00, ptr %25, align 4, !tbaa !45
  call void @llvm.lifetime.start.p0(i64 4, ptr %26) #18
  store float 0.000000e+00, ptr %26, align 4, !tbaa !45
  %75 = getelementptr inbounds nuw %"struct.faiss::(anonymous namespace)::FlatL2WithNormsDis", ptr %27, i32 0, i32 3
  %76 = load ptr, ptr %75, align 8, !tbaa !157
  %77 = load ptr, ptr %19, align 8, !tbaa !15
  %78 = load ptr, ptr %20, align 8, !tbaa !15
  %79 = load ptr, ptr %21, align 8, !tbaa !15
  %80 = load ptr, ptr %22, align 8, !tbaa !15
  %81 = getelementptr inbounds nuw %"struct.faiss::(anonymous namespace)::FlatL2WithNormsDis", ptr %27, i32 0, i32 1
  %82 = load i64, ptr %81, align 8, !tbaa !154
  call void @_ZN5faiss26fvec_inner_product_batch_4EPKfS1_S1_S1_S1_mRfS2_S2_S2_(ptr noundef %76, ptr noundef %77, ptr noundef %78, ptr noundef %79, ptr noundef %80, i64 noundef %82, ptr noundef nonnull align 4 dereferenceable(4) %23, ptr noundef nonnull align 4 dereferenceable(4) %24, ptr noundef nonnull align 4 dereferenceable(4) %25, ptr noundef nonnull align 4 dereferenceable(4) %26)
  %83 = getelementptr inbounds nuw %"struct.faiss::(anonymous namespace)::FlatL2WithNormsDis", ptr %27, i32 0, i32 7
  %84 = load float, ptr %83, align 8, !tbaa !161
  %85 = getelementptr inbounds nuw %"struct.faiss::(anonymous namespace)::FlatL2WithNormsDis", ptr %27, i32 0, i32 6
  %86 = load ptr, ptr %85, align 8, !tbaa !160
  %87 = load i64, ptr %11, align 8, !tbaa !13
  %88 = getelementptr inbounds float, ptr %86, i64 %87
  %89 = load float, ptr %88, align 4, !tbaa !45
  %90 = fadd float %84, %89
  %91 = load float, ptr %23, align 4, !tbaa !45
  %92 = call float @llvm.fmuladd.f32(float -2.000000e+00, float %91, float %90)
  %93 = load ptr, ptr %15, align 8, !tbaa !15
  store float %92, ptr %93, align 4, !tbaa !45
  %94 = getelementptr inbounds nuw %"struct.faiss::(anonymous namespace)::FlatL2WithNormsDis", ptr %27, i32 0, i32 7
  %95 = load float, ptr %94, align 8, !tbaa !161
  %96 = getelementptr inbounds nuw %"struct.faiss::(anonymous namespace)::FlatL2WithNormsDis", ptr %27, i32 0, i32 6
  %97 = load ptr, ptr %96, align 8, !tbaa !160
  %98 = load i64, ptr %12, align 8, !tbaa !13
  %99 = getelementptr inbounds float, ptr %97, i64 %98
  %100 = load float, ptr %99, align 4, !tbaa !45
  %101 = fadd float %95, %100
  %102 = load float, ptr %24, align 4, !tbaa !45
  %103 = call float @llvm.fmuladd.f32(float -2.000000e+00, float %102, float %101)
  %104 = load ptr, ptr %16, align 8, !tbaa !15
  store float %103, ptr %104, align 4, !tbaa !45
  %105 = getelementptr inbounds nuw %"struct.faiss::(anonymous namespace)::FlatL2WithNormsDis", ptr %27, i32 0, i32 7
  %106 = load float, ptr %105, align 8, !tbaa !161
  %107 = getelementptr inbounds nuw %"struct.faiss::(anonymous namespace)::FlatL2WithNormsDis", ptr %27, i32 0, i32 6
  %108 = load ptr, ptr %107, align 8, !tbaa !160
  %109 = load i64, ptr %13, align 8, !tbaa !13
  %110 = getelementptr inbounds float, ptr %108, i64 %109
  %111 = load float, ptr %110, align 4, !tbaa !45
  %112 = fadd float %106, %111
  %113 = load float, ptr %25, align 4, !tbaa !45
  %114 = call float @llvm.fmuladd.f32(float -2.000000e+00, float %113, float %112)
  %115 = load ptr, ptr %17, align 8, !tbaa !15
  store float %114, ptr %115, align 4, !tbaa !45
  %116 = getelementptr inbounds nuw %"struct.faiss::(anonymous namespace)::FlatL2WithNormsDis", ptr %27, i32 0, i32 7
  %117 = load float, ptr %116, align 8, !tbaa !161
  %118 = getelementptr inbounds nuw %"struct.faiss::(anonymous namespace)::FlatL2WithNormsDis", ptr %27, i32 0, i32 6
  %119 = load ptr, ptr %118, align 8, !tbaa !160
  %120 = load i64, ptr %14, align 8, !tbaa !13
  %121 = getelementptr inbounds float, ptr %119, i64 %120
  %122 = load float, ptr %121, align 4, !tbaa !45
  %123 = fadd float %117, %122
  %124 = load float, ptr %26, align 4, !tbaa !45
  %125 = call float @llvm.fmuladd.f32(float -2.000000e+00, float %124, float %123)
  %126 = load ptr, ptr %18, align 8, !tbaa !15
  store float %125, ptr %126, align 4, !tbaa !45
  call void @llvm.lifetime.end.p0(i64 4, ptr %26) #18
  call void @llvm.lifetime.end.p0(i64 4, ptr %25) #18
  call void @llvm.lifetime.end.p0(i64 4, ptr %24) #18
  call void @llvm.lifetime.end.p0(i64 4, ptr %23) #18
  call void @llvm.lifetime.end.p0(i64 8, ptr %22) #18
  call void @llvm.lifetime.end.p0(i64 8, ptr %21) #18
  call void @llvm.lifetime.end.p0(i64 8, ptr %20) #18
  call void @llvm.lifetime.end.p0(i64 8, ptr %19) #18
  ret void
}