; Function Attrs: mustprogress uwtable
define internal void @_ZN5faiss12_GLOBAL__N_118FlatL2WithNormsDis17distances_batch_4EllllRfS2_S2_S2_(ptr noundef nonnull align 8 captures(none) dereferenceable(76) %0, i64 noundef %1, i64 noundef %2, i64 noundef %3, i64 noundef %4, ptr noundef nonnull writeonly align 4 captures(none) dereferenceable(4) initializes((0, 4)) %5, ptr noundef nonnull writeonly align 4 captures(none) dereferenceable(4) initializes((0, 4)) %6, ptr noundef nonnull writeonly align 4 captures(none) dereferenceable(4) initializes((0, 4)) %7, ptr noundef nonnull writeonly align 4 captures(none) dereferenceable(4) initializes((0, 4)) %8) unnamed_addr #2 align 2 {
  %10 = alloca float, align 4
  %11 = alloca float, align 4
  %12 = alloca float, align 4
  %13 = alloca float, align 4
  %14 = getelementptr inbounds nuw i8, ptr %0, i64 56
  %15 = load i64, ptr %14, align 8, !tbaa !74
  %16 = add i64 %15, 4
  store i64 %16, ptr %14, align 8, !tbaa !74
  %17 = getelementptr inbounds nuw i8, ptr %0, i64 8
  %18 = load ptr, ptr %17, align 8, !tbaa !49
  %19 = getelementptr inbounds nuw i8, ptr %0, i64 16
  %20 = load i64, ptr %19, align 8, !tbaa !52
  %21 = mul i64 %20, %1
  %22 = getelementptr inbounds nuw i8, ptr %18, i64 %21
  %23 = mul i64 %20, %2
  %24 = getelementptr inbounds nuw i8, ptr %18, i64 %23
  %25 = mul i64 %20, %3
  %26 = getelementptr inbounds nuw i8, ptr %18, i64 %25
  %27 = mul i64 %20, %4
  %28 = getelementptr inbounds nuw i8, ptr %18, i64 %27
  %29 = getelementptr inbounds nuw i8, ptr %0, i64 64
  %30 = load ptr, ptr %29, align 8, !tbaa !75
  %31 = getelementptr inbounds float, ptr %30, i64 %1
  tail call void @llvm.prefetch.p0(ptr %31, i32 0, i32 2, i32 1)
  %32 = getelementptr inbounds float, ptr %30, i64 %2
  tail call void @llvm.prefetch.p0(ptr %32, i32 0, i32 2, i32 1)
  %33 = getelementptr inbounds float, ptr %30, i64 %3
  tail call void @llvm.prefetch.p0(ptr %33, i32 0, i32 2, i32 1)
  %34 = getelementptr inbounds float, ptr %30, i64 %4
  tail call void @llvm.prefetch.p0(ptr %34, i32 0, i32 2, i32 1)
  call void @llvm.lifetime.start.p0(i64 4, ptr nonnull %10) #21
  store float 0.000000e+00, ptr %10, align 4, !tbaa !96
  call void @llvm.lifetime.start.p0(i64 4, ptr nonnull %11) #21
  store float 0.000000e+00, ptr %11, align 4, !tbaa !96
  call void @llvm.lifetime.start.p0(i64 4, ptr nonnull %12) #21
  store float 0.000000e+00, ptr %12, align 4, !tbaa !96
  call void @llvm.lifetime.start.p0(i64 4, ptr nonnull %13) #21
  store float 0.000000e+00, ptr %13, align 4, !tbaa !96
  %35 = getelementptr inbounds nuw i8, ptr %0, i64 40
  %36 = load ptr, ptr %35, align 8, !tbaa !72
  %37 = getelementptr inbounds nuw i8, ptr %0, i64 24
  %38 = load i64, ptr %37, align 8, !tbaa !69
  call void @_ZN5faiss26fvec_inner_product_batch_4EPKfS1_S1_S1_S1_mRfS2_S2_S2_(ptr noundef %36, ptr noundef %22, ptr noundef %24, ptr noundef %26, ptr noundef %28, i64 noundef %38, ptr noundef nonnull align 4 dereferenceable(4) %10, ptr noundef nonnull align 4 dereferenceable(4) %11, ptr noundef nonnull align 4 dereferenceable(4) %12, ptr noundef nonnull align 4 dereferenceable(4) %13)
  %39 = getelementptr inbounds nuw i8, ptr %0, i64 72
  %40 = load float, ptr %39, align 8, !tbaa !76
  %41 = load ptr, ptr %29, align 8, !tbaa !75
  %42 = getelementptr inbounds float, ptr %41, i64 %1
  %43 = load float, ptr %42, align 4, !tbaa !96
  %44 = fadd float %40, %43
  %45 = load float, ptr %10, align 4, !tbaa !96
  %46 = call float @llvm.fmuladd.f32(float %45, float -2.000000e+00, float %44)
  store float %46, ptr %5, align 4, !tbaa !96
  %47 = load float, ptr %39, align 8, !tbaa !76
  %48 = getelementptr inbounds float, ptr %41, i64 %2
  %49 = load float, ptr %48, align 4, !tbaa !96
  %50 = fadd float %47, %49
  %51 = load float, ptr %11, align 4, !tbaa !96
  %52 = call float @llvm.fmuladd.f32(float %51, float -2.000000e+00, float %50)
  store float %52, ptr %6, align 4, !tbaa !96
  %53 = load float, ptr %39, align 8, !tbaa !76
  %54 = getelementptr inbounds float, ptr %41, i64 %3
  %55 = load float, ptr %54, align 4, !tbaa !96
  %56 = fadd float %53, %55
  %57 = load float, ptr %12, align 4, !tbaa !96
  %58 = call float @llvm.fmuladd.f32(float %57, float -2.000000e+00, float %56)
  store float %58, ptr %7, align 4, !tbaa !96
  %59 = load float, ptr %39, align 8, !tbaa !76
  %60 = getelementptr inbounds float, ptr %41, i64 %4
  %61 = load float, ptr %60, align 4, !tbaa !96
  %62 = fadd float %59, %61
  %63 = load float, ptr %13, align 4, !tbaa !96
  %64 = call float @llvm.fmuladd.f32(float %63, float -2.000000e+00, float %62)
  store float %64, ptr %8, align 4, !tbaa !96
  call void @llvm.lifetime.end.p0(i64 4, ptr nonnull %13) #21
  call void @llvm.lifetime.end.p0(i64 4, ptr nonnull %12) #21
  call void @llvm.lifetime.end.p0(i64 4, ptr nonnull %11) #21
  call void @llvm.lifetime.end.p0(i64 4, ptr nonnull %10) #21
  ret void
}